; Function Attrs: nounwind uwtable
define dso_local ptr @data_key_get(ptr noundef readonly captures(address_is_null) %0, ptr noundef %1) local_unnamed_addr #0 {
  %.not.i = icmp eq ptr %0, null
  br i1 %.not.i, label %data_dict_find_first.exit, label %3

3:                                                ; preds = %2
  %4 = getelementptr inbounds nuw i8, ptr %0, i64 4
  %5 = load i32, ptr %4, align 4
  %.not18.i = icmp eq i32 %5, 65283
  br i1 %.not18.i, label %6, label %data_dict_find_first.exit

6:                                                ; preds = %3
  %7 = getelementptr inbounds nuw i8, ptr %0, i64 8
  %8 = load ptr, ptr %7, align 8
  %9 = getelementptr inbounds nuw i8, ptr %8, i64 8
  %10 = load i64, ptr %9, align 8
  %.not19.i = icmp eq i64 %10, 0
  br i1 %.not19.i, label %data_dict_find_first.exit, label %11

11:                                               ; preds = %6
  %12 = getelementptr inbounds nuw i8, ptr %8, i64 16
  %.021.i = load ptr, ptr %12, align 8
  %.not2022.i = icmp eq ptr %.021.i, null
  br i1 %.not2022.i, label %data_dict_find_first.exit, label %.lr.ph.i

.lr.ph.i:                                         ; preds = %11, %16
  %.023.i = phi ptr [ %.0.i, %16 ], [ %.021.i, %11 ]
  %13 = getelementptr inbounds nuw i8, ptr %.023.i, i64 24
  %14 = load ptr, ptr %13, align 8
  %15 = tail call i32 @xstrcmp(ptr noundef %14, ptr noundef %1) #16
  %.not.i2 = icmp eq i32 %15, 0
  br i1 %.not.i2, label %18, label %16

16:                                               ; preds = %.lr.ph.i
  %17 = getelementptr inbounds nuw i8, ptr %.023.i, i64 8
  %.0.i = load ptr, ptr %17, align 8
  %.not20.i = icmp eq ptr %.0.i, null
  br i1 %.not20.i, label %data_dict_find_first.exit, label %.lr.ph.i, !llvm.loop !16

18:                                               ; preds = %.lr.ph.i
  %19 = getelementptr inbounds nuw i8, ptr %.023.i, i64 16
  %20 = load ptr, ptr %19, align 8
  br label %data_dict_find_first.exit

data_dict_find_first.exit:                        ; preds = %16, %2, %3, %6, %11, %18
  %.016.i = phi ptr [ %20, %18 ], [ null, %2 ], [ null, %3 ], [ null, %6 ], [ null, %11 ], [ null, %16 ]
  ret ptr %.016.i
}